; Function Attrs: nounwind uwtable
define void @ossl_qlog_str_len(ptr noundef %0, ptr noundef %1, ptr noundef %2, i64 noundef %3) local_unnamed_addr #0 {
  %.not = icmp eq ptr %1, null
  br i1 %.not, label %7, label %5

5:                                                ; preds = %4
  %6 = getelementptr inbounds nuw i8, ptr %0, i64 152
  tail call void @ossl_json_key(ptr noundef nonnull %6, ptr noundef nonnull %1) #11
  br label %7

7:                                                ; preds = %5, %4
  %8 = getelementptr inbounds nuw i8, ptr %0, i64 152
  tail call void @ossl_json_str_len(ptr noundef nonnull %8, ptr noundef %2, i64 noundef %3) #11
  ret void
}